target datalayout = "e-m:e-p270:32:32-p271:32:32-p272:64:64-i64:64-i128:128-f80:128-n8:16:32:64-S128"
target triple = "x86_64-pc-linux-gnu"

%class.ShenandoahAllocRequest = type <{ i64, i64, i64, i32, [4 x i8] }>

@g_assert_poison = external global ptr, align 8
@.str.4 = private unnamed_addr constant [54 x i8] c"src/hotspot/share/gc/shenandoah/shenandoahFreeSet.cpp\00", align 1
@_ZN20ShenandoahHeapRegion23HumongousThresholdWordsE = external global i64, align 8

; Function Attrs: mustprogress nounwind uwtable
define linkonce_odr hidden noundef i32 @_ZN22ShenandoahAllocRequest4typeEv(ptr noundef nonnull align 8 dereferenceable(28) %0) #1 comdat align 2 {
  %2 = alloca ptr, align 8
  store ptr %0, ptr %2, align 8
  %3 = load ptr, ptr %2, align 8
  %4 = getelementptr inbounds %class.ShenandoahAllocRequest, ptr %3, i32 0, i32 3
  %5 = load i32, ptr %4, align 8
  ret i32 %5
}

; Function Attrs: mustprogress nounwind uwtable
define linkonce_odr hidden noundef i64 @_ZN20ShenandoahHeapRegion25humongous_threshold_wordsEv() #1 comdat align 2 {
  %1 = load i64, ptr @_ZN20ShenandoahHeapRegion23HumongousThresholdWordsE, align 8
  ret i64 %1
}

; Function Attrs: mustprogress nounwind uwtable
define linkonce_odr hidden noundef i64 @_ZN22ShenandoahAllocRequest4sizeEv(ptr noundef nonnull align 8 dereferenceable(28) %0) #1 comdat align 2 {
  %2 = alloca ptr, align 8
  store ptr %0, ptr %2, align 8
  %3 = load ptr, ptr %2, align 8
  %4 = getelementptr inbounds %class.ShenandoahAllocRequest, ptr %3, i32 0, i32 1
  %5 = load i64, ptr %4, align 8
  ret i64 %5
}

; Function Attrs: mustprogress nounwind uwtable
define hidden noundef ptr @_ZN17ShenandoahFreeSet8allocateER22ShenandoahAllocRequestRb(ptr noundef nonnull align 8 dereferenceable(224) %0, ptr noundef nonnull align 8 dereferenceable(28) %1, ptr noundef nonnull align 1 dereferenceable(1) %2) #1 align 2 {
  %4 = alloca ptr, align 8
  %5 = alloca ptr, align 8
  %6 = alloca ptr, align 8
  %7 = alloca ptr, align 8
  store ptr %0, ptr %5, align 8
  store ptr %1, ptr %6, align 8
  store ptr %2, ptr %7, align 8
  %8 = load ptr, ptr %5, align 8
  %9 = load ptr, ptr %6, align 8
  %10 = call noundef i64 @_ZN22ShenandoahAllocRequest4sizeEv(ptr noundef nonnull align 8 dereferenceable(28) %9)
  %11 = call noundef i64 @_ZN20ShenandoahHeapRegion25humongous_threshold_wordsEv()
  %12 = icmp ugt i64 %10, %11
  br i1 %12, label %13, label %26

13:                                               ; preds = %3
  %14 = load ptr, ptr %6, align 8
  %15 = call noundef i32 @_ZN22ShenandoahAllocRequest4typeEv(ptr noundef nonnull align 8 dereferenceable(28) %14)
  switch i32 %15, label %22 [
    i32 0, label %16
    i32 1, label %16
    i32 3, label %20
    i32 2, label %20
  ]

16:                                               ; preds = %13, %13
  %17 = load ptr, ptr %7, align 8
  store i8 1, ptr %17, align 1
  %18 = load ptr, ptr %6, align 8
  %19 = call noundef ptr @_ZN17ShenandoahFreeSet19allocate_contiguousER22ShenandoahAllocRequest(ptr noundef nonnull align 8 dereferenceable(224) %8, ptr noundef nonnull align 8 dereferenceable(28) %18)
  store ptr %19, ptr %4, align 8
  br label %30

20:                                               ; preds = %13, %13
  %21 = load ptr, ptr %7, align 8
  store i8 0, ptr %21, align 1
  store ptr null, ptr %4, align 8
  br label %30

22:                                               ; preds = %13
  br label %23

23:                                               ; preds = %22
  %24 = load ptr, ptr @g_assert_poison, align 8
  store i8 88, ptr %24, align 1
  call void @_Z28report_should_not_reach_herePKci(ptr noundef @.str.4, i32 noundef 1324) #10
  unreachable

25:                                               ; No predecessors!
  store ptr null, ptr %4, align 8
  br label %30

26:                                               ; preds = %3
  %27 = load ptr, ptr %6, align 8
  %28 = load ptr, ptr %7, align 8
  %29 = call noundef ptr @_ZN17ShenandoahFreeSet15allocate_singleER22ShenandoahAllocRequestRb(ptr noundef nonnull align 8 dereferenceable(224) %8, ptr noundef nonnull align 8 dereferenceable(28) %27, ptr noundef nonnull align 1 dereferenceable(1) %28)
  store ptr %29, ptr %4, align 8
  br label %30

30:                                               ; preds = %26, %25, %20, %16
  %31 = load ptr, ptr %4, align 8
  ret ptr %31
}