; Function Attrs: mustprogress nounwind uwtable
define hidden noundef ptr @_ZN17ShenandoahFreeSet8allocateER22ShenandoahAllocRequestRb(ptr noundef nonnull align 8 dereferenceable(224) %0, ptr noundef nonnull align 8 dereferenceable(28) %1, ptr nocapture noundef nonnull writeonly align 1 dereferenceable(1) %2) local_unnamed_addr #0 align 2 {
  %4 = getelementptr inbounds i8, ptr %1, i64 8
  %5 = load i64, ptr %4, align 8
  %6 = load i64, ptr @_ZN20ShenandoahHeapRegion23HumongousThresholdWordsE, align 8
  %7 = icmp ugt i64 %5, %6
  br i1 %7, label %8, label %16

8:                                                ; preds = %3
  %9 = getelementptr inbounds i8, ptr %1, i64 24
  %10 = load i32, ptr %9, align 8
  switch i32 %10, label %14 [
    i32 0, label %11
    i32 1, label %11
    i32 3, label %13
    i32 2, label %13
  ]

11:                                               ; preds = %8, %8
  store i8 1, ptr %2, align 1
  %12 = tail call noundef ptr @_ZN17ShenandoahFreeSet19allocate_contiguousER22ShenandoahAllocRequest(ptr noundef nonnull align 8 dereferenceable(224) %0, ptr noundef nonnull align 8 dereferenceable(28) %1)
  br label %18

13:                                               ; preds = %8, %8
  store i8 0, ptr %2, align 1
  br label %18

14:                                               ; preds = %8
  %15 = load ptr, ptr @g_assert_poison, align 8
  store i8 88, ptr %15, align 1
  tail call void @_Z28report_should_not_reach_herePKci(ptr noundef nonnull @.str.4, i32 noundef 1324) #19
  unreachable

16:                                               ; preds = %3
  %17 = tail call noundef ptr @_ZN17ShenandoahFreeSet15allocate_singleER22ShenandoahAllocRequestRb(ptr noundef nonnull align 8 dereferenceable(224) %0, ptr noundef nonnull align 8 dereferenceable(28) %1, ptr noundef nonnull align 1 dereferenceable(1) %2)
  br label %18

18:                                               ; preds = %16, %13, %11
  %.0 = phi ptr [ null, %13 ], [ %12, %11 ], [ %17, %16 ]
  ret ptr %.0
}